target datalayout = "e-m:e-p270:32:32-p271:32:32-p272:64:64-i64:64-i128:128-f80:128-n8:16:32:64-S128"
target triple = "x86_64-pc-linux-gnu"

@ossl_der_oid_rsaEncryption = external constant [11 x i8], align 1
@ossl_der_oid_id_RSASSA_PSS = external constant [11 x i8], align 1

; Function Attrs: nounwind uwtable
define i32 @ossl_DER_w_algorithmIdentifier_RSA_PSS(ptr noundef %0, i32 noundef %1, i32 noundef %2, ptr noundef %3) #0 {
  %5 = alloca i32, align 4
  %6 = alloca ptr, align 8
  %7 = alloca i32, align 4
  %8 = alloca i32, align 4
  %9 = alloca ptr, align 8
  %10 = alloca i32, align 4
  %11 = alloca ptr, align 8
  %12 = alloca i64, align 8
  %13 = alloca i32, align 4
  store ptr %0, ptr %6, align 8, !tbaa !3
  store i32 %1, ptr %7, align 4, !tbaa !8
  store i32 %2, ptr %8, align 4, !tbaa !8
  store ptr %3, ptr %9, align 8, !tbaa !10
  call void @llvm.lifetime.start.p0(i64 4, ptr %10) #4
  store i32 0, ptr %10, align 4, !tbaa !8
  call void @llvm.lifetime.start.p0(i64 8, ptr %11) #4
  store ptr null, ptr %11, align 8, !tbaa !12
  call void @llvm.lifetime.start.p0(i64 8, ptr %12) #4
  store i64 0, ptr %12, align 8, !tbaa !14
  %14 = load i32, ptr %8, align 4, !tbaa !8
  switch i32 %14, label %17 [
    i32 0, label %15
    i32 4096, label %16
  ]

15:                                               ; preds = %4
  store i32 6, ptr %10, align 4, !tbaa !8
  store ptr @ossl_der_oid_rsaEncryption, ptr %11, align 8, !tbaa !12
  store i64 11, ptr %12, align 8, !tbaa !14
  br label %17

16:                                               ; preds = %4
  store i32 912, ptr %10, align 4, !tbaa !8
  store ptr @ossl_der_oid_id_RSASSA_PSS, ptr %11, align 8, !tbaa !12
  store i64 11, ptr %12, align 8, !tbaa !14
  br label %17

17:                                               ; preds = %4, %16, %15
  %18 = load ptr, ptr %11, align 8, !tbaa !12
  %19 = icmp eq ptr %18, null
  br i1 %19, label %20, label %21

20:                                               ; preds = %17
  store i32 0, ptr %5, align 4
  store i32 1, ptr %13, align 4
  br label %52

21:                                               ; preds = %17
  %22 = load ptr, ptr %6, align 8, !tbaa !3
  %23 = load i32, ptr %7, align 4, !tbaa !8
  %24 = call i32 @ossl_DER_w_begin_sequence(ptr noundef %22, i32 noundef %23)
  %25 = icmp ne i32 %24, 0
  br i1 %25, label %26, label %49

26:                                               ; preds = %21
  %27 = load i32, ptr %10, align 4, !tbaa !8
  %28 = icmp ne i32 %27, 912
  br i1 %28, label %38, label %29

29:                                               ; preds = %26
  %30 = load ptr, ptr %9, align 8, !tbaa !10
  %31 = call i32 @ossl_rsa_pss_params_30_is_unrestricted(ptr noundef %30)
  %32 = icmp ne i32 %31, 0
  br i1 %32, label %38, label %33

33:                                               ; preds = %29
  %34 = load ptr, ptr %6, align 8, !tbaa !3
  %35 = load ptr, ptr %9, align 8, !tbaa !10
  %36 = call i32 @ossl_DER_w_RSASSA_PSS_params(ptr noundef %34, i32 noundef -1, ptr noundef %35)
  %37 = icmp ne i32 %36, 0
  br i1 %37, label %38, label %49

38:                                               ; preds = %33, %29, %26
  %39 = load ptr, ptr %6, align 8, !tbaa !3
  %40 = load ptr, ptr %11, align 8, !tbaa !12
  %41 = load i64, ptr %12, align 8, !tbaa !14
  %42 = call i32 @ossl_DER_w_precompiled(ptr noundef %39, i32 noundef -1, ptr noundef %40, i64 noundef %41)
  %43 = icmp ne i32 %42, 0
  br i1 %43, label %44, label %49

44:                                               ; preds = %38
  %45 = load ptr, ptr %6, align 8, !tbaa !3
  %46 = load i32, ptr %7, align 4, !tbaa !8
  %47 = call i32 @ossl_DER_w_end_sequence(ptr noundef %45, i32 noundef %46)
  %48 = icmp ne i32 %47, 0
  br label %49

49:                                               ; preds = %44, %38, %33, %21
  %50 = phi i1 [ false, %38 ], [ false, %33 ], [ false, %21 ], [ %48, %44 ]
  %51 = zext i1 %50 to i32
  store i32 %51, ptr %5, align 4
  store i32 1, ptr %13, align 4
  br label %52

52:                                               ; preds = %49, %20
  call void @llvm.lifetime.end.p0(i64 8, ptr %12) #4
  call void @llvm.lifetime.end.p0(i64 8, ptr %11) #4
  call void @llvm.lifetime.end.p0(i64 4, ptr %10) #4
  %53 = load i32, ptr %5, align 4
  ret i32 %53
}