; Function Attrs: nounwind uwtable
define range(i32 0, 2) i32 @ossl_DER_w_algorithmIdentifier_RSA_PSS(ptr noundef %0, i32 noundef %1, i32 noundef %2, ptr noundef %3) local_unnamed_addr #0 {
  switch i32 %2, label %17 [
    i32 0, label %.thread26
    i32 4096, label %5
  ]

5:                                                ; preds = %4
  %6 = tail call i32 @ossl_DER_w_begin_sequence(ptr noundef %0, i32 noundef %1) #2
  %.not = icmp eq i32 %6, 0
  br i1 %.not, label %17, label %8

.thread26:                                        ; preds = %4
  %7 = tail call i32 @ossl_DER_w_begin_sequence(ptr noundef %0, i32 noundef %1) #2
  %.not29 = icmp eq i32 %7, 0
  br i1 %.not29, label %17, label %.thread32

8:                                                ; preds = %5
  %9 = tail call i32 @ossl_rsa_pss_params_30_is_unrestricted(ptr noundef %3) #2
  %.not17 = icmp eq i32 %9, 0
  br i1 %.not17, label %10, label %.thread32

10:                                               ; preds = %8
  %11 = tail call i32 @ossl_DER_w_RSASSA_PSS_params(ptr noundef %0, i32 noundef -1, ptr noundef %3)
  %.not18 = icmp eq i32 %11, 0
  br i1 %.not18, label %17, label %.thread32

.thread32:                                        ; preds = %.thread26, %10, %8
  %.013.ph3135 = phi ptr [ @ossl_der_oid_id_RSASSA_PSS, %10 ], [ @ossl_der_oid_id_RSASSA_PSS, %8 ], [ @ossl_der_oid_rsaEncryption, %.thread26 ]
  %12 = tail call i32 @ossl_DER_w_precompiled(ptr noundef %0, i32 noundef -1, ptr noundef nonnull %.013.ph3135, i64 noundef 11) #2
  %.not19 = icmp eq i32 %12, 0
  br i1 %.not19, label %17, label %13

13:                                               ; preds = %.thread32
  %14 = tail call i32 @ossl_DER_w_end_sequence(ptr noundef %0, i32 noundef %1) #2
  %15 = icmp ne i32 %14, 0
  %16 = zext i1 %15 to i32
  br label %17

17:                                               ; preds = %.thread26, %4, %5, %10, %.thread32, %13
  %.015 = phi i32 [ 0, %.thread32 ], [ 0, %10 ], [ 0, %5 ], [ %16, %13 ], [ 0, %4 ], [ 0, %.thread26 ]
  ret i32 %.015
}